target datalayout = "e-m:e-p270:32:32-p271:32:32-p272:64:64-i64:64-i128:128-f80:128-n8:16:32:64-S128"
target triple = "x86_64-pc-linux-gnu"

@stdout = external global ptr, align 8
@.str.2 = private unnamed_addr constant [41 x i8] c"Cannot open the intermediate file \22%s\22.\0A\00", align 1
@.str.5 = private unnamed_addr constant [8 x i8] c"dot.exe\00", align 1
@.str.6 = private unnamed_addr constant [4 x i8] c"dot\00", align 1
@.str.7 = private unnamed_addr constant [13 x i8] c"gsview32.exe\00", align 1
@.str.8 = private unnamed_addr constant [3 x i8] c"gv\00", align 1
@.str.9 = private unnamed_addr constant [7 x i8] c"dotwin\00", align 1
@.str.10 = private unnamed_addr constant [8 x i8] c"dotunix\00", align 1
@.str.11 = private unnamed_addr constant [2 x i8] c"r\00", align 1
@.str.12 = private unnamed_addr constant [6 x i8] c"%s.ps\00", align 1
@.str.13 = private unnamed_addr constant [17 x i8] c"%s -Tps -o %s %s\00", align 1
@.str.14 = private unnamed_addr constant [31 x i8] c"Command \22%s\22 did not succeed.\0A\00", align 1
@.str.15 = private unnamed_addr constant [37 x i8] c"Cannot open intermediate file \22%s\22.\0A\00", align 1
@.str.16 = private unnamed_addr constant [10 x i8] c"gsviewwin\00", align 1
@.str.17 = private unnamed_addr constant [11 x i8] c"gsviewunix\00", align 1
@.str.18 = private unnamed_addr constant [8 x i8] c"%s %s &\00", align 1
@.str.19 = private unnamed_addr constant [22 x i8] c"Cannot execute \22%s\22.\0A\00", align 1

; Function Attrs: nounwind uwtable
define void @Abc_ShowFile(ptr noundef %0, i32 noundef %1) #0 {
  %3 = alloca ptr, align 8
  %4 = alloca i32, align 4
  %5 = alloca ptr, align 8
  %6 = alloca ptr, align 8
  %7 = alloca [200 x i8], align 16
  %8 = alloca [1000 x i8], align 16
  %9 = alloca ptr, align 8
  %10 = alloca ptr, align 8
  %11 = alloca ptr, align 8
  %12 = alloca ptr, align 8
  %13 = alloca ptr, align 8
  %14 = alloca i32, align 4
  %15 = alloca i32, align 4
  %16 = alloca [1000 x i8], align 16
  store ptr %0, ptr %3, align 8, !tbaa !10
  store i32 %1, ptr %4, align 4, !tbaa !14
  call void @llvm.lifetime.start.p0(i64 8, ptr %5) #8
  call void @llvm.lifetime.start.p0(i64 8, ptr %6) #8
  call void @llvm.lifetime.start.p0(i64 200, ptr %7) #8
  call void @llvm.lifetime.start.p0(i64 1000, ptr %8) #8
  call void @llvm.lifetime.start.p0(i64 8, ptr %9) #8
  call void @llvm.lifetime.start.p0(i64 8, ptr %10) #8
  store ptr @.str.5, ptr %10, align 8, !tbaa !10
  call void @llvm.lifetime.start.p0(i64 8, ptr %11) #8
  store ptr @.str.6, ptr %11, align 8, !tbaa !10
  call void @llvm.lifetime.start.p0(i64 8, ptr %12) #8
  store ptr @.str.7, ptr %12, align 8, !tbaa !10
  call void @llvm.lifetime.start.p0(i64 8, ptr %13) #8
  store ptr @.str.8, ptr %13, align 8, !tbaa !10
  call void @llvm.lifetime.start.p0(i64 4, ptr %14) #8
  %17 = call ptr @Abc_FrameReadFlag(ptr noundef @.str.9)
  %18 = icmp ne ptr %17, null
  br i1 %18, label %19, label %21

19:                                               ; preds = %2
  %20 = call ptr @Abc_FrameReadFlag(ptr noundef @.str.9)
  store ptr %20, ptr %10, align 8, !tbaa !10
  br label %21

21:                                               ; preds = %19, %2
  %22 = call ptr @Abc_FrameReadFlag(ptr noundef @.str.10)
  %23 = icmp ne ptr %22, null
  br i1 %23, label %24, label %26

24:                                               ; preds = %21
  %25 = call ptr @Abc_FrameReadFlag(ptr noundef @.str.10)
  store ptr %25, ptr %11, align 8, !tbaa !10
  br label %26

26:                                               ; preds = %24, %21
  %27 = load ptr, ptr %11, align 8, !tbaa !10
  store ptr %27, ptr %9, align 8, !tbaa !10
  %28 = load ptr, ptr %3, align 8, !tbaa !10
  %29 = call noalias ptr @fopen(ptr noundef %28, ptr noundef @.str.11)
  store ptr %29, ptr %5, align 8, !tbaa !12
  %30 = icmp eq ptr %29, null
  br i1 %30, label %31, label %35

31:                                               ; preds = %26
  %32 = load ptr, ptr @stdout, align 8, !tbaa !12
  %33 = load ptr, ptr %3, align 8, !tbaa !10
  %34 = call i32 (ptr, ptr, ...) @fprintf(ptr noundef %32, ptr noundef @.str.2, ptr noundef %33) #8
  store i32 1, ptr %15, align 4
  br label %104

35:                                               ; preds = %26
  %36 = load ptr, ptr %5, align 8, !tbaa !12
  %37 = call i32 @fclose(ptr noundef %36)
  %38 = load ptr, ptr %3, align 8, !tbaa !10
  %39 = call ptr @Extra_FileNameGeneric(ptr noundef %38)
  store ptr %39, ptr %6, align 8, !tbaa !10
  %40 = getelementptr inbounds [200 x i8], ptr %7, i64 0, i64 0
  %41 = load ptr, ptr %6, align 8, !tbaa !10
  %42 = call i32 (ptr, ptr, ...) @sprintf(ptr noundef %40, ptr noundef @.str.12, ptr noundef %41) #8
  %43 = load ptr, ptr %6, align 8, !tbaa !10
  %44 = icmp ne ptr %43, null
  br i1 %44, label %45, label %47

45:                                               ; preds = %35
  %46 = load ptr, ptr %6, align 8, !tbaa !10
  call void @free(ptr noundef %46) #8
  store ptr null, ptr %6, align 8, !tbaa !10
  br label %48

47:                                               ; preds = %35
  br label %48

48:                                               ; preds = %47, %45
  %49 = getelementptr inbounds [1000 x i8], ptr %8, i64 0, i64 0
  %50 = load ptr, ptr %9, align 8, !tbaa !10
  %51 = getelementptr inbounds [200 x i8], ptr %7, i64 0, i64 0
  %52 = load ptr, ptr %3, align 8, !tbaa !10
  %53 = call i32 (ptr, ptr, ...) @sprintf(ptr noundef %49, ptr noundef @.str.13, ptr noundef %50, ptr noundef %51, ptr noundef %52) #8
  %54 = getelementptr inbounds [1000 x i8], ptr %8, i64 0, i64 0
  %55 = call i32 @system(ptr noundef %54)
  store i32 %55, ptr %14, align 4, !tbaa !14
  %56 = load i32, ptr %14, align 4, !tbaa !14
  %57 = icmp eq i32 %56, -1
  br i1 %57, label %58, label %62

58:                                               ; preds = %48
  %59 = load ptr, ptr @stdout, align 8, !tbaa !12
  %60 = getelementptr inbounds [1000 x i8], ptr %8, i64 0, i64 0
  %61 = call i32 (ptr, ptr, ...) @fprintf(ptr noundef %59, ptr noundef @.str.14, ptr noundef %60) #8
  store i32 1, ptr %15, align 4
  br label %104

62:                                               ; preds = %48
  %63 = getelementptr inbounds [200 x i8], ptr %7, i64 0, i64 0
  %64 = call noalias ptr @fopen(ptr noundef %63, ptr noundef @.str.11)
  store ptr %64, ptr %5, align 8, !tbaa !12
  %65 = icmp eq ptr %64, null
  br i1 %65, label %66, label %70

66:                                               ; preds = %62
  %67 = load ptr, ptr @stdout, align 8, !tbaa !12
  %68 = getelementptr inbounds [200 x i8], ptr %7, i64 0, i64 0
  %69 = call i32 (ptr, ptr, ...) @fprintf(ptr noundef %67, ptr noundef @.str.15, ptr noundef %68) #8
  store i32 1, ptr %15, align 4
  br label %104

70:                                               ; preds = %62
  %71 = load ptr, ptr %5, align 8, !tbaa !12
  %72 = call i32 @fclose(ptr noundef %71)
  %73 = call ptr @Abc_FrameReadFlag(ptr noundef @.str.16)
  %74 = icmp ne ptr %73, null
  br i1 %74, label %75, label %77

75:                                               ; preds = %70
  %76 = call ptr @Abc_FrameReadFlag(ptr noundef @.str.16)
  store ptr %76, ptr %12, align 8, !tbaa !10
  br label %77

77:                                               ; preds = %75, %70
  %78 = call ptr @Abc_FrameReadFlag(ptr noundef @.str.17)
  %79 = icmp ne ptr %78, null
  br i1 %79, label %80, label %82

80:                                               ; preds = %77
  %81 = call ptr @Abc_FrameReadFlag(ptr noundef @.str.17)
  store ptr %81, ptr %13, align 8, !tbaa !10
  br label %82

82:                                               ; preds = %80, %77
  call void @llvm.lifetime.start.p0(i64 1000, ptr %16) #8
  %83 = load i32, ptr %4, align 4, !tbaa !14
  %84 = icmp ne i32 %83, 0
  br i1 %84, label %88, label %85

85:                                               ; preds = %82
  %86 = load ptr, ptr %3, align 8, !tbaa !10
  %87 = call i32 @unlink(ptr noundef %86) #8
  br label %88

88:                                               ; preds = %85, %82
  %89 = getelementptr inbounds [1000 x i8], ptr %16, i64 0, i64 0
  %90 = load ptr, ptr %13, align 8, !tbaa !10
  %91 = getelementptr inbounds [200 x i8], ptr %7, i64 0, i64 0
  %92 = call i32 (ptr, ptr, ...) @sprintf(ptr noundef %89, ptr noundef @.str.18, ptr noundef %90, ptr noundef %91) #8
  %93 = getelementptr inbounds [1000 x i8], ptr %16, i64 0, i64 0
  %94 = call i32 @system(ptr noundef %93)
  %95 = icmp eq i32 %94, -1
  br i1 %95, label %96, label %100

96:                                               ; preds = %88
  %97 = load ptr, ptr @stdout, align 8, !tbaa !12
  %98 = getelementptr inbounds [1000 x i8], ptr %16, i64 0, i64 0
  %99 = call i32 (ptr, ptr, ...) @fprintf(ptr noundef %97, ptr noundef @.str.19, ptr noundef %98) #8
  store i32 1, ptr %15, align 4
  br label %101

100:                                              ; preds = %88
  store i32 0, ptr %15, align 4
  br label %101

101:                                              ; preds = %100, %96
  call void @llvm.lifetime.end.p0(i64 1000, ptr %16) #8
  %102 = load i32, ptr %15, align 4
  switch i32 %102, label %104 [
    i32 0, label %103
  ]

103:                                              ; preds = %101
  store i32 0, ptr %15, align 4
  br label %104

104:                                              ; preds = %103, %101, %66, %58, %31
  call void @llvm.lifetime.end.p0(i64 4, ptr %14) #8
  call void @llvm.lifetime.end.p0(i64 8, ptr %13) #8
  call void @llvm.lifetime.end.p0(i64 8, ptr %12) #8
  call void @llvm.lifetime.end.p0(i64 8, ptr %11) #8
  call void @llvm.lifetime.end.p0(i64 8, ptr %10) #8
  call void @llvm.lifetime.end.p0(i64 8, ptr %9) #8
  call void @llvm.lifetime.end.p0(i64 1000, ptr %8) #8
  call void @llvm.lifetime.end.p0(i64 200, ptr %7) #8
  call void @llvm.lifetime.end.p0(i64 8, ptr %6) #8
  call void @llvm.lifetime.end.p0(i64 8, ptr %5) #8
  %105 = load i32, ptr %15, align 4
  switch i32 %105, label %107 [
    i32 0, label %106
    i32 1, label %106
  ]

106:                                              ; preds = %104, %104
  ret void

107:                                              ; preds = %104
  unreachable
}