; Function Attrs: nounwind uwtable
define void @Abc_ShowFile(ptr noundef %0, i32 noundef %1) local_unnamed_addr #0 {
  %3 = alloca [200 x i8], align 16
  %4 = alloca [1000 x i8], align 16
  %5 = alloca [1000 x i8], align 16
  call void @llvm.lifetime.start.p0(i64 200, ptr nonnull %3) #10
  call void @llvm.lifetime.start.p0(i64 1000, ptr nonnull %4) #10
  %6 = tail call ptr @Abc_FrameReadFlag(ptr noundef nonnull @.str.9) #10
  %.not = icmp eq ptr %6, null
  br i1 %.not, label %9, label %7

7:                                                ; preds = %2
  %8 = tail call ptr @Abc_FrameReadFlag(ptr noundef nonnull @.str.9) #10
  br label %9

9:                                                ; preds = %7, %2
  %10 = tail call ptr @Abc_FrameReadFlag(ptr noundef nonnull @.str.10) #10
  %.not20 = icmp eq ptr %10, null
  br i1 %.not20, label %13, label %11

11:                                               ; preds = %9
  %12 = tail call ptr @Abc_FrameReadFlag(ptr noundef nonnull @.str.10) #10
  br label %13

13:                                               ; preds = %11, %9
  %.016 = phi ptr [ %12, %11 ], [ @.str.6, %9 ]
  %14 = tail call noalias ptr @fopen(ptr noundef %0, ptr noundef nonnull @.str.11)
  %15 = icmp eq ptr %14, null
  br i1 %15, label %16, label %19

16:                                               ; preds = %13
  %17 = load ptr, ptr @stdout, align 8, !tbaa !8
  %18 = tail call i32 (ptr, ptr, ...) @fprintf(ptr noundef %17, ptr noundef nonnull @.str.2, ptr noundef %0) #10
  br label %57

19:                                               ; preds = %13
  %20 = tail call i32 @fclose(ptr noundef nonnull %14)
  %21 = tail call ptr @Extra_FileNameGeneric(ptr noundef %0) #10
  %22 = call i32 (ptr, ptr, ...) @sprintf(ptr noundef nonnull dereferenceable(1) %3, ptr noundef nonnull dereferenceable(1) @.str.12, ptr noundef %21) #10
  %.not21 = icmp eq ptr %21, null
  br i1 %.not21, label %24, label %23

23:                                               ; preds = %19
  tail call void @free(ptr noundef nonnull %21) #10
  br label %24

24:                                               ; preds = %19, %23
  %25 = call i32 (ptr, ptr, ...) @sprintf(ptr noundef nonnull dereferenceable(1) %4, ptr noundef nonnull dereferenceable(1) @.str.13, ptr noundef %.016, ptr noundef nonnull %3, ptr noundef %0) #10
  %26 = call i32 @system(ptr noundef nonnull %4) #10
  %27 = icmp eq i32 %26, -1
  br i1 %27, label %28, label %31

28:                                               ; preds = %24
  %29 = load ptr, ptr @stdout, align 8, !tbaa !8
  %30 = call i32 (ptr, ptr, ...) @fprintf(ptr noundef %29, ptr noundef nonnull @.str.14, ptr noundef nonnull %4) #10
  br label %57

31:                                               ; preds = %24
  %32 = call noalias ptr @fopen(ptr noundef nonnull %3, ptr noundef nonnull @.str.11)
  %33 = icmp eq ptr %32, null
  br i1 %33, label %34, label %37

34:                                               ; preds = %31
  %35 = load ptr, ptr @stdout, align 8, !tbaa !8
  %36 = call i32 (ptr, ptr, ...) @fprintf(ptr noundef %35, ptr noundef nonnull @.str.15, ptr noundef nonnull %3) #10
  br label %57

37:                                               ; preds = %31
  %38 = call i32 @fclose(ptr noundef nonnull %32)
  %39 = call ptr @Abc_FrameReadFlag(ptr noundef nonnull @.str.16) #10
  %.not22 = icmp eq ptr %39, null
  br i1 %.not22, label %42, label %40

40:                                               ; preds = %37
  %41 = call ptr @Abc_FrameReadFlag(ptr noundef nonnull @.str.16) #10
  br label %42

42:                                               ; preds = %40, %37
  %43 = call ptr @Abc_FrameReadFlag(ptr noundef nonnull @.str.17) #10
  %.not23 = icmp eq ptr %43, null
  br i1 %.not23, label %46, label %44

44:                                               ; preds = %42
  %45 = call ptr @Abc_FrameReadFlag(ptr noundef nonnull @.str.17) #10
  br label %46

46:                                               ; preds = %44, %42
  %.015 = phi ptr [ %45, %44 ], [ @.str.8, %42 ]
  call void @llvm.lifetime.start.p0(i64 1000, ptr nonnull %5) #10
  %.not24 = icmp eq i32 %1, 0
  br i1 %.not24, label %47, label %49

47:                                               ; preds = %46
  %48 = call i32 @unlink(ptr noundef %0) #10
  br label %49

49:                                               ; preds = %47, %46
  %50 = call i32 (ptr, ptr, ...) @sprintf(ptr noundef nonnull dereferenceable(1) %5, ptr noundef nonnull dereferenceable(1) @.str.18, ptr noundef %.015, ptr noundef nonnull %3) #10
  %51 = call i32 @system(ptr noundef nonnull %5) #10
  %52 = icmp eq i32 %51, -1
  br i1 %52, label %53, label %56

53:                                               ; preds = %49
  %54 = load ptr, ptr @stdout, align 8, !tbaa !8
  %55 = call i32 (ptr, ptr, ...) @fprintf(ptr noundef %54, ptr noundef nonnull @.str.19, ptr noundef nonnull %5) #10
  br label %56

56:                                               ; preds = %49, %53
  call void @llvm.lifetime.end.p0(i64 1000, ptr nonnull %5) #10
  br label %57

57:                                               ; preds = %56, %34, %28, %16
  call void @llvm.lifetime.end.p0(i64 1000, ptr nonnull %4) #10
  call void @llvm.lifetime.end.p0(i64 200, ptr nonnull %3) #10
  ret void
}